; Function Attrs: mustprogress uwtable
define dso_local range(i32 0, 2) i32 @stbi_is_16_bit_from_callbacks(ptr noundef readonly captures(none) %0, ptr noundef %1) local_unnamed_addr #4 {
  %3 = alloca %struct.stbi__png, align 8
  %4 = alloca %struct.stbi__context, align 8
  call void @llvm.lifetime.start.p0(i64 224, ptr nonnull %4) #35
  %5 = getelementptr inbounds nuw i8, ptr %4, i64 16
  call void @llvm.memcpy.p0.p0.i64(ptr noundef nonnull align 8 dereferenceable(24) %5, ptr noundef nonnull readonly align 8 dereferenceable(24) %0, i64 24, i1 false), !tbaa.struct !12
  %6 = getelementptr inbounds nuw i8, ptr %4, i64 40
  store ptr %1, ptr %6, align 8, !tbaa !14
  %7 = getelementptr inbounds nuw i8, ptr %4, i64 52
  store i32 128, ptr %7, align 4, !tbaa !17
  %8 = getelementptr inbounds nuw i8, ptr %4, i64 48
  store i32 1, ptr %8, align 8, !tbaa !18
  %9 = getelementptr inbounds nuw i8, ptr %4, i64 184
  store i32 0, ptr %9, align 8, !tbaa !19
  %10 = getelementptr inbounds nuw i8, ptr %4, i64 56
  %11 = getelementptr inbounds nuw i8, ptr %4, i64 208
  store ptr %10, ptr %11, align 8, !tbaa !20
  %12 = getelementptr inbounds nuw i8, ptr %4, i64 192
  store ptr %10, ptr %12, align 8, !tbaa !21
  %13 = load ptr, ptr %5, align 8, !tbaa !22
  %14 = call noundef i32 %13(ptr noundef %1, ptr noundef nonnull %10, i32 noundef 128)
  %15 = load ptr, ptr %12, align 8, !tbaa !21
  %16 = load ptr, ptr %11, align 8, !tbaa !20
  %17 = ptrtoint ptr %15 to i64
  %18 = ptrtoint ptr %16 to i64
  %19 = sub i64 %17, %18
  %20 = trunc i64 %19 to i32
  %21 = load i32, ptr %9, align 8, !tbaa !19
  %22 = add nsw i32 %21, %20
  store i32 %22, ptr %9, align 8, !tbaa !19
  %23 = icmp eq i32 %14, 0
  br i1 %23, label %24, label %26

24:                                               ; preds = %2
  store i32 0, ptr %8, align 8, !tbaa !18
  %25 = getelementptr inbounds nuw i8, ptr %4, i64 57
  store i8 0, ptr %10, align 8, !tbaa !23
  br label %_ZL21stbi__start_callbacksP13stbi__contextP17stbi_io_callbacksPv.exit

26:                                               ; preds = %2
  %27 = sext i32 %14 to i64
  %28 = getelementptr inbounds i8, ptr %10, i64 %27
  br label %_ZL21stbi__start_callbacksP13stbi__contextP17stbi_io_callbacksPv.exit

_ZL21stbi__start_callbacksP13stbi__contextP17stbi_io_callbacksPv.exit: ; preds = %24, %26
  %.sink.i.i = phi ptr [ %25, %24 ], [ %28, %26 ]
  store ptr %10, ptr %12, align 8, !tbaa !21
  %29 = getelementptr inbounds nuw i8, ptr %4, i64 200
  store ptr %.sink.i.i, ptr %29, align 8, !tbaa !24
  %30 = getelementptr inbounds nuw i8, ptr %4, i64 216
  store ptr %.sink.i.i, ptr %30, align 8, !tbaa !25
  call void @llvm.lifetime.start.p0(i64 40, ptr nonnull %3) #35
  store ptr %4, ptr %3, align 8, !tbaa !37
  %31 = call fastcc noundef i32 @_ZL20stbi__parse_png_fileP9stbi__pngii(ptr noundef nonnull %3, i32 noundef 2, i32 noundef 0)
  %.not.i.i.i = icmp ne i32 %31, 0
  %32 = getelementptr inbounds nuw i8, ptr %3, i64 32
  %33 = load i32, ptr %32, align 8
  %.not1.i.i = icmp eq i32 %33, 16
  %or.cond.i.i = select i1 %.not.i.i.i, i1 %.not1.i.i, i1 false
  br i1 %or.cond.i.i, label %_ZL14stbi__png_is16P13stbi__context.exit.i, label %34

_ZL14stbi__png_is16P13stbi__context.exit.i:       ; preds = %_ZL21stbi__start_callbacksP13stbi__contextP17stbi_io_callbacksPv.exit
  call void @llvm.lifetime.end.p0(i64 40, ptr nonnull %3) #35
  br label %_ZL16stbi__is_16_mainP13stbi__context.exit

34:                                               ; preds = %_ZL21stbi__start_callbacksP13stbi__contextP17stbi_io_callbacksPv.exit
  %35 = load ptr, ptr %3, align 8, !tbaa !37
  %36 = getelementptr inbounds nuw i8, ptr %35, i64 208
  %37 = load ptr, ptr %36, align 8, !tbaa !20
  %38 = getelementptr inbounds nuw i8, ptr %35, i64 192
  store ptr %37, ptr %38, align 8, !tbaa !21
  %39 = getelementptr inbounds nuw i8, ptr %35, i64 216
  %40 = load ptr, ptr %39, align 8, !tbaa !25
  %41 = getelementptr inbounds nuw i8, ptr %35, i64 200
  store ptr %40, ptr %41, align 8, !tbaa !24
  call void @llvm.lifetime.end.p0(i64 40, ptr nonnull %3) #35
  %42 = call fastcc noundef i32 @_ZL14stbi__pnm_infoP13stbi__contextPiS1_S1_(ptr noundef nonnull %4, ptr noundef null, ptr noundef null, ptr noundef null)
  %.not.i = icmp eq i32 %42, 16
  %..i = zext i1 %.not.i to i32
  br label %_ZL16stbi__is_16_mainP13stbi__context.exit

_ZL16stbi__is_16_mainP13stbi__context.exit:       ; preds = %_ZL14stbi__png_is16P13stbi__context.exit.i, %34
  %.0.i = phi i32 [ 1, %_ZL14stbi__png_is16P13stbi__context.exit.i ], [ %..i, %34 ]
  call void @llvm.lifetime.end.p0(i64 224, ptr nonnull %4) #35
  ret i32 %.0.i
}